; Function Attrs: mustprogress uwtable
define internal noundef zeroext i1 @"_ZNSt17_Function_handlerIFvPKcS1_EZNK14V3OptionParser12AppendHelperclES1_NS4_17CbPartialMatchValESt8functionIS2_EE3$_0E10_M_managerERSt9_Any_dataRKSA_St18_Manager_operation"(ptr nocapture noundef nonnull align 8 dereferenceable(16) %0, ptr nocapture noundef nonnull readonly align 8 dereferenceable(16) %1, i32 noundef %2) #3 align 2 personality ptr @__gxx_personality_v0 {
  switch i32 %2, label %6 [
    i32 0, label %4
    i32 1, label %5
  ]

4:                                                ; preds = %3
  store ptr @"_ZTIZNK14V3OptionParser12AppendHelperclEPKcNS0_17CbPartialMatchValESt8functionIFvS2_S2_EEE3$_0", ptr %0, align 8
  br label %"_ZNSt14_Function_base13_Base_managerIZNK14V3OptionParser12AppendHelperclEPKcNS2_17CbPartialMatchValESt8functionIFvS4_S4_EEE3$_0E10_M_managerERSt9_Any_dataRKSB_St18_Manager_operation.exit"

5:                                                ; preds = %3
  %.val = load ptr, ptr %1, align 8
  store ptr %.val, ptr %0, align 8
  br label %"_ZNSt14_Function_base13_Base_managerIZNK14V3OptionParser12AppendHelperclEPKcNS2_17CbPartialMatchValESt8functionIFvS4_S4_EEE3$_0E10_M_managerERSt9_Any_dataRKSB_St18_Manager_operation.exit"

6:                                                ; preds = %3
  %.val6 = load ptr, ptr %1, align 8
  switch i32 %2, label %"_ZNSt14_Function_base13_Base_managerIZNK14V3OptionParser12AppendHelperclEPKcNS2_17CbPartialMatchValESt8functionIFvS4_S4_EEE3$_0E10_M_managerERSt9_Any_dataRKSB_St18_Manager_operation.exit" [
    i32 3, label %30
    i32 2, label %7
  ]

7:                                                ; preds = %6
  %8 = tail call noalias noundef nonnull dereferenceable(40) ptr @_Znwm(i64 noundef 40) #21
  %9 = load i64, ptr %.val6, align 8
  store i64 %9, ptr %8, align 8
  %10 = getelementptr inbounds i8, ptr %8, i64 8
  %11 = getelementptr inbounds i8, ptr %8, i64 24
  %12 = getelementptr inbounds i8, ptr %8, i64 32
  %13 = getelementptr inbounds i8, ptr %.val6, i64 24
  tail call void @llvm.memset.p0.i64(ptr noundef nonnull align 8 dereferenceable(32) %10, i8 0, i64 32, i1 false)
  %14 = load ptr, ptr %13, align 8
  %.not.i.i.not.i.i.i.i.i = icmp eq ptr %14, null
  br i1 %.not.i.i.not.i.i.i.i.i, label %"_ZNSt14_Function_base13_Base_managerIZNK14V3OptionParser12AppendHelperclEPKcNS2_17CbPartialMatchValESt8functionIFvS4_S4_EEE3$_0E15_M_init_functorIRKS9_EEvRSt9_Any_dataOT_.exit.i", label %15

15:                                               ; preds = %7
  %16 = getelementptr inbounds i8, ptr %.val6, i64 8
  %17 = invoke noundef zeroext i1 %14(ptr noundef nonnull align 8 dereferenceable(16) %10, ptr noundef nonnull align 8 dereferenceable(16) %16, i32 noundef 2)
          to label %18 unwind label %22

18:                                               ; preds = %15
  %19 = getelementptr inbounds i8, ptr %.val6, i64 32
  %20 = load ptr, ptr %19, align 8
  store ptr %20, ptr %12, align 8
  %21 = load ptr, ptr %13, align 8
  store ptr %21, ptr %11, align 8
  br label %"_ZNSt14_Function_base13_Base_managerIZNK14V3OptionParser12AppendHelperclEPKcNS2_17CbPartialMatchValESt8functionIFvS4_S4_EEE3$_0E15_M_init_functorIRKS9_EEvRSt9_Any_dataOT_.exit.i"

22:                                               ; preds = %15
  %23 = landingpad { ptr, i32 }
          cleanup
  %24 = load ptr, ptr %11, align 8
  %.not.i.i.i.i.i.i = icmp eq ptr %24, null
  br i1 %.not.i.i.i.i.i.i, label %.body.i.i.i, label %25

25:                                               ; preds = %22
  %26 = invoke noundef zeroext i1 %24(ptr noundef nonnull align 8 dereferenceable(16) %10, ptr noundef nonnull align 8 dereferenceable(16) %10, i32 noundef 3)
          to label %.body.i.i.i unwind label %27

27:                                               ; preds = %25
  %28 = landingpad { ptr, i32 }
          catch ptr null
  %29 = extractvalue { ptr, i32 } %28, 0
  tail call void @__clang_call_terminate(ptr %29) #19
  unreachable

.body.i.i.i:                                      ; preds = %25, %22
  tail call void @_ZdlPv(ptr noundef nonnull %8) #22
  resume { ptr, i32 } %23

"_ZNSt14_Function_base13_Base_managerIZNK14V3OptionParser12AppendHelperclEPKcNS2_17CbPartialMatchValESt8functionIFvS4_S4_EEE3$_0E15_M_init_functorIRKS9_EEvRSt9_Any_dataOT_.exit.i": ; preds = %18, %7
  store ptr %8, ptr %0, align 8
  br label %"_ZNSt14_Function_base13_Base_managerIZNK14V3OptionParser12AppendHelperclEPKcNS2_17CbPartialMatchValESt8functionIFvS4_S4_EEE3$_0E10_M_managerERSt9_Any_dataRKSB_St18_Manager_operation.exit"

30:                                               ; preds = %6
  %.val7.i = load ptr, ptr %0, align 8
  %31 = icmp eq ptr %.val7.i, null
  br i1 %31, label %"_ZNSt14_Function_base13_Base_managerIZNK14V3OptionParser12AppendHelperclEPKcNS2_17CbPartialMatchValESt8functionIFvS4_S4_EEE3$_0E10_M_managerERSt9_Any_dataRKSB_St18_Manager_operation.exit", label %32

32:                                               ; preds = %30
  %33 = getelementptr inbounds i8, ptr %.val7.i, i64 24
  %34 = load ptr, ptr %33, align 8
  %.not.i.i.i.i.i = icmp eq ptr %34, null
  br i1 %.not.i.i.i.i.i, label %"_ZZNK14V3OptionParser12AppendHelperclEPKcNS0_17CbPartialMatchValESt8functionIFvS2_S2_EEEN3$_0D2Ev.exit.i.i", label %35

35:                                               ; preds = %32
  %36 = getelementptr inbounds i8, ptr %.val7.i, i64 8
  %37 = invoke noundef zeroext i1 %34(ptr noundef nonnull align 8 dereferenceable(16) %36, ptr noundef nonnull align 8 dereferenceable(16) %36, i32 noundef 3)
          to label %"_ZZNK14V3OptionParser12AppendHelperclEPKcNS0_17CbPartialMatchValESt8functionIFvS2_S2_EEEN3$_0D2Ev.exit.i.i" unwind label %38

38:                                               ; preds = %35
  %39 = landingpad { ptr, i32 }
          catch ptr null
  %40 = extractvalue { ptr, i32 } %39, 0
  tail call void @__clang_call_terminate(ptr %40) #19
  unreachable

"_ZZNK14V3OptionParser12AppendHelperclEPKcNS0_17CbPartialMatchValESt8functionIFvS2_S2_EEEN3$_0D2Ev.exit.i.i": ; preds = %35, %32
  tail call void @_ZdlPv(ptr noundef nonnull %.val7.i) #22
  br label %"_ZNSt14_Function_base13_Base_managerIZNK14V3OptionParser12AppendHelperclEPKcNS2_17CbPartialMatchValESt8functionIFvS4_S4_EEE3$_0E10_M_managerERSt9_Any_dataRKSB_St18_Manager_operation.exit"

"_ZNSt14_Function_base13_Base_managerIZNK14V3OptionParser12AppendHelperclEPKcNS2_17CbPartialMatchValESt8functionIFvS4_S4_EEE3$_0E10_M_managerERSt9_Any_dataRKSB_St18_Manager_operation.exit": ; preds = %"_ZZNK14V3OptionParser12AppendHelperclEPKcNS0_17CbPartialMatchValESt8functionIFvS2_S2_EEEN3$_0D2Ev.exit.i.i", %30, %"_ZNSt14_Function_base13_Base_managerIZNK14V3OptionParser12AppendHelperclEPKcNS2_17CbPartialMatchValESt8functionIFvS4_S4_EEE3$_0E15_M_init_functorIRKS9_EEvRSt9_Any_dataOT_.exit.i", %6, %5, %4
  ret i1 false
}